target datalayout = "e-m:e-p270:32:32-p271:32:32-p272:64:64-i64:64-i128:128-f80:128-n8:16:32:64-S128"
target triple = "x86_64-pc-linux-gnu"

%struct._object = type { i64, ptr }
%"class.pybind11::object" = type { %"class.pybind11::handle" }
%"class.pybind11::handle" = type { ptr }
%"class.pybind11::module_" = type { %"class.pybind11::object" }
%class.anon.335 = type { %"class.pybind11::module_" }
%"struct.pybind11::detail::function_record" = type <{ ptr, ptr, ptr, %"class.std::vector.221", ptr, [3 x ptr], ptr, i8, i16, i8, i16, i16, i16, [6 x i8], ptr, %"class.pybind11::handle", %"class.pybind11::handle", ptr }>
%"class.std::vector.221" = type { %"struct.std::_Vector_base.222" }
%"struct.std::_Vector_base.222" = type { %"struct.std::_Vector_base<pybind11::detail::argument_record, std::allocator<pybind11::detail::argument_record>>::_Vector_impl" }
%"struct.std::_Vector_base<pybind11::detail::argument_record, std::allocator<pybind11::detail::argument_record>>::_Vector_impl" = type { %"struct.std::_Vector_base<pybind11::detail::argument_record, std::allocator<pybind11::detail::argument_record>>::_Vector_impl_data" }
%"struct.std::_Vector_base<pybind11::detail::argument_record, std::allocator<pybind11::detail::argument_record>>::_Vector_impl_data" = type { ptr, ptr, ptr }
%class.anon.518 = type { i8 }
%struct.capture.517 = type { %class.anon.335 }

; Function Attrs: inlinehint mustprogress uwtable
define internal void @_ZL10_Py_DECREFP7_object(ptr noundef %0) #10 {
  %2 = alloca ptr, align 8
  store ptr %0, ptr %2, align 8, !tbaa !85
  %3 = load ptr, ptr %2, align 8, !tbaa !85
  %4 = getelementptr inbounds nuw %struct._object, ptr %3, i32 0, i32 0
  %5 = load i64, ptr %4, align 8, !tbaa !103
  %6 = add nsw i64 %5, -1
  store i64 %6, ptr %4, align 8, !tbaa !103
  %7 = icmp ne i64 %6, 0
  br i1 %7, label %8, label %9

8:                                                ; preds = %1
  br label %11

9:                                                ; preds = %1
  %10 = load ptr, ptr %2, align 8, !tbaa !85
  call void @_Py_Dealloc(ptr noundef %10)
  br label %11

11:                                               ; preds = %9, %8
  ret void
}

; Function Attrs: inlinehint mustprogress uwtable
define internal void @_ZL11_Py_XDECREFP7_object(ptr noundef %0) #10 {
  %2 = alloca ptr, align 8
  store ptr %0, ptr %2, align 8, !tbaa !85
  %3 = load ptr, ptr %2, align 8, !tbaa !85
  %4 = icmp ne ptr %3, null
  br i1 %4, label %5, label %7

5:                                                ; preds = %1
  %6 = load ptr, ptr %2, align 8, !tbaa !85
  call void @_ZL10_Py_DECREFP7_object(ptr noundef %6)
  br label %7

7:                                                ; preds = %5, %1
  ret void
}

; Function Attrs: mustprogress uwtable
define linkonce_odr hidden noundef nonnull align 8 dereferenceable(8) ptr @_ZNKR8pybind116handle7dec_refEv(ptr noundef nonnull align 8 dereferenceable(8) %0) #4 comdat align 2 {
  %2 = alloca ptr, align 8
  store ptr %0, ptr %2, align 8, !tbaa !128
  %3 = load ptr, ptr %2, align 8
  %4 = getelementptr inbounds nuw %"class.pybind11::handle", ptr %3, i32 0, i32 0
  %5 = load ptr, ptr %4, align 8, !tbaa !130
  call void @_ZL11_Py_XDECREFP7_object(ptr noundef %5)
  ret ptr %3
}

; Function Attrs: mustprogress nounwind uwtable
define linkonce_odr hidden void @_ZN8pybind116objectD2Ev(ptr noundef nonnull align 8 dereferenceable(8) %0) unnamed_addr #5 comdat align 2 personality ptr @__gxx_personality_v0 {
  %2 = alloca ptr, align 8
  store ptr %0, ptr %2, align 8, !tbaa !157
  %3 = load ptr, ptr %2, align 8
  %4 = invoke noundef nonnull align 8 dereferenceable(8) ptr @_ZNKR8pybind116handle7dec_refEv(ptr noundef nonnull align 8 dereferenceable(8) %3)
          to label %5 unwind label %6

5:                                                ; preds = %1
  ret void

6:                                                ; preds = %1
  %7 = landingpad { ptr, i32 }
          catch ptr null
  %8 = extractvalue { ptr, i32 } %7, 0
  call void @__clang_call_terminate(ptr %8) #27
  unreachable
}

; Function Attrs: inlinehint mustprogress nounwind uwtable
define internal void @"_ZZN14pybind11_tests16test_cpp_conduitL33pybind11_init_exo_planet_pybind11ERN8pybind117module_EEN3$_0D2Ev"(ptr noundef nonnull align 8 dereferenceable(8) %0) unnamed_addr #0 align 2 {
  %2 = alloca ptr, align 8
  store ptr %0, ptr %2, align 8, !tbaa !97
  %3 = load ptr, ptr %2, align 8
  %4 = getelementptr inbounds nuw %class.anon.335, ptr %3, i32 0, i32 0
  call void @_ZN8pybind116objectD2Ev(ptr noundef nonnull align 8 dereferenceable(8) %4) #23
  ret void
}

; Function Attrs: inlinehint mustprogress nounwind uwtable
define internal void @"_ZZN8pybind1112cpp_function10initializeIZN14pybind11_tests16test_cpp_conduitL33pybind11_init_exo_planet_pybind11ERNS_7module_EE3$_0vJEJNS_4nameENS_5scopeENS_7siblingEEEEvOT_PFT0_DpT1_EDpRKT2_EN7captureD2Ev"(ptr noundef nonnull align 8 dereferenceable(8) %0) unnamed_addr #0 align 2 {
  %2 = alloca ptr, align 8
  store ptr %0, ptr %2, align 8, !tbaa !1812
  %3 = load ptr, ptr %2, align 8
  %4 = getelementptr inbounds nuw %struct.capture.517, ptr %3, i32 0, i32 0
  call void @"_ZZN14pybind11_tests16test_cpp_conduitL33pybind11_init_exo_planet_pybind11ERN8pybind117module_EEN3$_0D2Ev"(ptr noundef nonnull align 8 dereferenceable(8) %4) #23
  ret void
}

; Function Attrs: mustprogress nounwind uwtable
define internal noundef ptr @"_ZSt7launderIZN8pybind1112cpp_function10initializeIZN14pybind11_tests16test_cpp_conduitL33pybind11_init_exo_planet_pybind11ERNS0_7module_EE3$_0vJEJNS0_4nameENS0_5scopeENS0_7siblingEEEEvOT_PFT0_DpT1_EDpRKT2_E7captureEPSB_SN_"(ptr noundef %0) #5 {
  %2 = alloca ptr, align 8
  store ptr %0, ptr %2, align 8, !tbaa !1812
  %3 = load ptr, ptr %2, align 8, !tbaa !1812
  ret ptr %3
}

; Function Attrs: inlinehint mustprogress nounwind uwtable
define internal void @"_ZZN8pybind1112cpp_function10initializeIZN14pybind11_tests16test_cpp_conduitL33pybind11_init_exo_planet_pybind11ERNS_7module_EE3$_0vJEJNS_4nameENS_5scopeENS_7siblingEEEEvOT_PFT0_DpT1_EDpRKT2_ENKUlPNS_6detail15function_recordEE_clESN_"(ptr noundef nonnull align 1 dereferenceable(1) %0, ptr noundef %1) #0 align 2 {
  %3 = alloca ptr, align 8
  %4 = alloca ptr, align 8
  %5 = alloca ptr, align 8
  store ptr %0, ptr %3, align 8, !tbaa !97
  store ptr %1, ptr %4, align 8, !tbaa !782
  call void @llvm.lifetime.start.p0(i64 8, ptr %5) #23
  %6 = load ptr, ptr %4, align 8, !tbaa !782
  %7 = getelementptr inbounds nuw %"struct.pybind11::detail::function_record", ptr %6, i32 0, i32 5
  %8 = call noundef ptr @"_ZSt7launderIZN8pybind1112cpp_function10initializeIZN14pybind11_tests16test_cpp_conduitL33pybind11_init_exo_planet_pybind11ERNS0_7module_EE3$_0vJEJNS0_4nameENS0_5scopeENS0_7siblingEEEEvOT_PFT0_DpT1_EDpRKT2_E7captureEPSB_SN_"(ptr noundef %7) #23
  store ptr %8, ptr %5, align 8, !tbaa !1812
  %9 = load ptr, ptr %5, align 8, !tbaa !1812
  call void @"_ZZN8pybind1112cpp_function10initializeIZN14pybind11_tests16test_cpp_conduitL33pybind11_init_exo_planet_pybind11ERNS_7module_EE3$_0vJEJNS_4nameENS_5scopeENS_7siblingEEEEvOT_PFT0_DpT1_EDpRKT2_EN7captureD2Ev"(ptr noundef nonnull align 8 dereferenceable(8) %9) #23
  call void @llvm.lifetime.end.p0(i64 8, ptr %5) #23
  ret void
}

; Function Attrs: inlinehint mustprogress uwtable
define internal void @"_ZZN8pybind1112cpp_function10initializeIZN14pybind11_tests16test_cpp_conduitL33pybind11_init_exo_planet_pybind11ERNS_7module_EE3$_0vJEJNS_4nameENS_5scopeENS_7siblingEEEEvOT_PFT0_DpT1_EDpRKT2_ENUlPNS_6detail15function_recordEE_8__invokeESN_"(ptr noundef %0) #10 align 2 {
  %2 = alloca ptr, align 8
  %3 = alloca %class.anon.518, align 1
  store ptr %0, ptr %2, align 8, !tbaa !782
  %4 = load ptr, ptr %2, align 8, !tbaa !782
  call void @"_ZZN8pybind1112cpp_function10initializeIZN14pybind11_tests16test_cpp_conduitL33pybind11_init_exo_planet_pybind11ERNS_7module_EE3$_0vJEJNS_4nameENS_5scopeENS_7siblingEEEEvOT_PFT0_DpT1_EDpRKT2_ENKUlPNS_6detail15function_recordEE_clESN_"(ptr noundef nonnull align 1 dereferenceable(1) %3, ptr noundef %4)
  ret void
}