; Function Attrs: inlinehint mustprogress nounwind uwtable
define internal void @"_ZZN8pybind1112cpp_function10initializeIZN14pybind11_tests16test_cpp_conduitL33pybind11_init_exo_planet_pybind11ERNS_7module_EE3$_0vJEJNS_4nameENS_5scopeENS_7siblingEEEEvOT_PFT0_DpT1_EDpRKT2_ENUlPNS_6detail15function_recordEE_8__invokeESN_"(ptr noundef readonly captures(none) %0) #0 align 2 personality ptr @__gxx_personality_v0 {
  %2 = getelementptr i8, ptr %0, i64 56
  %.val = load ptr, ptr %2, align 8, !tbaa !83
  %.not.i.i.i.i.i.i = icmp eq ptr %.val, null
  br i1 %.not.i.i.i.i.i.i, label %"_ZZN8pybind1112cpp_function10initializeIZN14pybind11_tests16test_cpp_conduitL33pybind11_init_exo_planet_pybind11ERNS_7module_EE3$_0vJEJNS_4nameENS_5scopeENS_7siblingEEEEvOT_PFT0_DpT1_EDpRKT2_ENKUlPNS_6detail15function_recordEE_clESN_.exit", label %3

3:                                                ; preds = %1
  %4 = load i64, ptr %.val, align 8, !tbaa !81
  %5 = add nsw i64 %4, -1
  store i64 %5, ptr %.val, align 8, !tbaa !81
  %.not.i.i.i.i.i.i.i = icmp eq i64 %5, 0
  br i1 %.not.i.i.i.i.i.i.i, label %6, label %"_ZZN8pybind1112cpp_function10initializeIZN14pybind11_tests16test_cpp_conduitL33pybind11_init_exo_planet_pybind11ERNS_7module_EE3$_0vJEJNS_4nameENS_5scopeENS_7siblingEEEEvOT_PFT0_DpT1_EDpRKT2_ENKUlPNS_6detail15function_recordEE_clESN_.exit"

6:                                                ; preds = %3
  invoke void @_Py_Dealloc(ptr noundef nonnull %.val)
          to label %"_ZZN8pybind1112cpp_function10initializeIZN14pybind11_tests16test_cpp_conduitL33pybind11_init_exo_planet_pybind11ERNS_7module_EE3$_0vJEJNS_4nameENS_5scopeENS_7siblingEEEEvOT_PFT0_DpT1_EDpRKT2_ENKUlPNS_6detail15function_recordEE_clESN_.exit" unwind label %7

7:                                                ; preds = %6
  %8 = landingpad { ptr, i32 }
          catch ptr null
  %9 = extractvalue { ptr, i32 } %8, 0
  tail call void @__clang_call_terminate(ptr %9) #29
  unreachable

"_ZZN8pybind1112cpp_function10initializeIZN14pybind11_tests16test_cpp_conduitL33pybind11_init_exo_planet_pybind11ERNS_7module_EE3$_0vJEJNS_4nameENS_5scopeENS_7siblingEEEEvOT_PFT0_DpT1_EDpRKT2_ENKUlPNS_6detail15function_recordEE_clESN_.exit": ; preds = %1, %3, %6
  ret void
}